; Function Attrs: nounwind uwtable
define internal void @_PrintExtraToc(ptr noundef %0, ptr noundef readonly captures(none) %1) #0 {
  %3 = getelementptr inbounds nuw i8, ptr %0, i64 16
  %4 = load i32, ptr %3, align 8
  %.not = icmp eq i32 %4, 0
  br i1 %.not, label %11, label %5

5:                                                ; preds = %2
  %6 = getelementptr inbounds nuw i8, ptr %1, i64 152
  %7 = load ptr, ptr %6, align 8
  %8 = load ptr, ptr %7, align 8
  %.not5 = icmp eq ptr %8, null
  br i1 %.not5, label %11, label %9

9:                                                ; preds = %5
  %10 = tail call i32 (ptr, ptr, ...) @ahprintf(ptr noundef nonnull %0, ptr noundef nonnull @.str.14, ptr noundef nonnull %8) #14
  br label %11

11:                                               ; preds = %9, %5, %2
  ret void
}